; Function Attrs: mustprogress nofree norecurse nosync nounwind willreturn memory(read, inaccessiblemem: none) uwtable
define hidden noundef zeroext i1 @_ZNK6hermes18SourceMapGenerator18hasSourcesMetadataEv(ptr nocapture noundef nonnull readonly align 8 dereferenceable(224) %this) local_unnamed_addr #3 align 2 {
entry:
  %sourcesMetadata_ = getelementptr inbounds i8, ptr %this, i64 176
  %0 = load ptr, ptr %sourcesMetadata_, align 8
  %_M_finish.i = getelementptr inbounds i8, ptr %this, i64 184
  %1 = load ptr, ptr %_M_finish.i, align 8
  %cmp.i5.not = icmp eq ptr %0, %1
  br i1 %cmp.i5.not, label %return, label %for.body

for.body:                                         ; preds = %entry, %for.inc
  %__begin1.sroa.0.06 = phi ptr [ %incdec.ptr.i, %for.inc ], [ %0, %entry ]
  %hasVal.i = getelementptr inbounds i8, ptr %__begin1.sroa.0.06, i64 24
  %2 = load i8, ptr %hasVal.i, align 8
  %3 = and i8 %2, 1
  %tobool.i.not = icmp eq i8 %3, 0
  br i1 %tobool.i.not, label %for.inc, label %land.lhs.true

land.lhs.true:                                    ; preds = %for.body
  %4 = load ptr, ptr %__begin1.sroa.0.06, align 8
  %5 = load i32, ptr %4, align 4
  %cmp.not = icmp eq i32 %5, 5
  br i1 %cmp.not, label %for.inc, label %return

for.inc:                                          ; preds = %for.body, %land.lhs.true
  %incdec.ptr.i = getelementptr inbounds i8, ptr %__begin1.sroa.0.06, i64 32
  %cmp.i.not = icmp eq ptr %incdec.ptr.i, %1
  br i1 %cmp.i.not, label %return, label %for.body

return:                                           ; preds = %land.lhs.true, %for.inc, %entry
  %cmp.i.lcssa = phi i1 [ false, %entry ], [ false, %for.inc ], [ true, %land.lhs.true ]
  ret i1 %cmp.i.lcssa
}